; ModuleID = 'source-C-CXX/25/148.c'
source_filename = "source-C-CXX/25/148.c"
target datalayout = "e-m:e-p270:32:32-p271:32:32-p272:64:64-i64:64-f80:128-n8:16:32:64-S128"
target triple = "x86_64-pc-linux-gnu"

@.str = private unnamed_addr constant [3 x i8] c"%c\00", align 1

; Function Attrs: nofree nounwind sspstrong uwtable
define dso_local i32 @main() local_unnamed_addr #0 {
  %1 = alloca [110 x i8], align 16
  %2 = getelementptr inbounds [110 x i8], [110 x i8]* %1, i64 0, i64 0
  call void @llvm.lifetime.start.p0i8(i64 110, i8* nonnull %2) #5
  call void @llvm.memset.p0i8.i64(i8* noundef nonnull align 16 dereferenceable(110) %2, i8 0, i64 110, i1 false)
  br label %3

3:                                                ; preds = %0, %24
  %4 = phi i32 [ 0, %0 ], [ %25, %24 ]
  %5 = sext i32 %4 to i64
  %6 = getelementptr inbounds [110 x i8], [110 x i8]* %1, i64 0, i64 %5
  %7 = call i32 (i8*, ...) @__isoc99_scanf(i8* getelementptr inbounds ([3 x i8], [3 x i8]* @.str, i64 0, i64 0), i8* nonnull %6)
  %8 = load i8, i8* %6, align 1, !tbaa !5
  %9 = icmp eq i8 %8, 32
  br i1 %9, label %10, label %20

10:                                               ; preds = %3
  %11 = add nsw i32 %4, -1
  %12 = sext i32 %11 to i64
  %13 = getelementptr inbounds [110 x i8], [110 x i8]* %1, i64 0, i64 %12
  %14 = load i8, i8* %13, align 1, !tbaa !5
  %15 = icmp eq i8 %14, 32
  %16 = select i1 %15, i32 %11, i32 %4
  %17 = sext i32 %16 to i64
  %18 = getelementptr inbounds [110 x i8], [110 x i8]* %1, i64 0, i64 %17
  %19 = load i8, i8* %18, align 1, !tbaa !5
  br label %20

20:                                               ; preds = %10, %3
  %21 = phi i8 [ %19, %10 ], [ %8, %3 ]
  %22 = phi i32 [ %16, %10 ], [ %4, %3 ]
  %23 = icmp eq i8 %21, 10
  br i1 %23, label %27, label %24

24:                                               ; preds = %20
  %25 = add nsw i32 %22, 1
  %26 = icmp slt i32 %22, 109
  br i1 %26, label %3, label %29, !llvm.loop !8

27:                                               ; preds = %20
  %28 = icmp sgt i32 %22, 0
  br i1 %28, label %29, label %39

29:                                               ; preds = %24, %27
  %30 = zext i32 %22 to i64
  br label %31

31:                                               ; preds = %29, %31
  %32 = phi i64 [ 0, %29 ], [ %37, %31 ]
  %33 = getelementptr inbounds [110 x i8], [110 x i8]* %1, i64 0, i64 %32
  %34 = load i8, i8* %33, align 1, !tbaa !5
  %35 = sext i8 %34 to i32
  %36 = call i32 @putchar(i32 %35)
  %37 = add nuw nsw i64 %32, 1
  %38 = icmp eq i64 %37, %30
  br i1 %38, label %39, label %31, !llvm.loop !10

39:                                               ; preds = %31, %27
  %40 = call i32 @putchar(i32 10)
  call void @llvm.lifetime.end.p0i8(i64 110, i8* nonnull %2) #5
  ret i32 0
}

; Function Attrs: argmemonly mustprogress nofree nosync nounwind willreturn
declare void @llvm.lifetime.start.p0i8(i64 immarg, i8* nocapture) #1

; Function Attrs: argmemonly mustprogress nofree nounwind willreturn writeonly
declare void @llvm.memset.p0i8.i64(i8* nocapture writeonly, i8, i64, i1 immarg) #2

; Function Attrs: nofree nounwind
declare noundef i32 @__isoc99_scanf(i8* nocapture noundef readonly, ...) local_unnamed_addr #3

; Function Attrs: argmemonly mustprogress nofree nosync nounwind willreturn
declare void @llvm.lifetime.end.p0i8(i64 immarg, i8* nocapture) #1

; Function Attrs: nofree nounwind
declare noundef i32 @putchar(i32 noundef) local_unnamed_addr #4


!llvm.module.flags = !{!0, !1, !2, !3}
!llvm.ident = !{!4}

!0 = !{i32 1, !"wchar_size", i32 4}
!1 = !{i32 7, !"PIC Level", i32 2}
!2 = !{i32 7, !"PIE Level", i32 2}
!3 = !{i32 7, !"uwtable", i32 1}
!4 = !{!"clang version 13.0.0"}
!5 = !{!6, !6, i64 0}
!6 = !{!"omnipotent char", !7, i64 0}
!7 = !{!"Simple C/C++ TBAA"}
!8 = distinct !{!8, !9}
!9 = !{!"llvm.loop.mustprogress"}
!10 = distinct !{!10, !9}
